target datalayout = "e-m:e-p270:32:32-p271:32:32-p272:64:64-i64:64-i128:128-f80:128-n8:16:32:64-S128"
target triple = "x86_64-pc-linux-gnu"

@wait_seconds = internal global i32 60, align 4
@silent_mode = internal global i8 0, align 1
@stdout = external global ptr, align 8
@.str.145 = private unnamed_addr constant [2 x i8] c".\00", align 1

; Function Attrs: nounwind uwtable
define internal void @print_msg(ptr noundef %0) #0 {
  %2 = alloca ptr, align 8
  store ptr %0, ptr %2, align 8
  %3 = load i8, ptr @silent_mode, align 1, !range !6, !noundef !7
  %4 = trunc i8 %3 to i1
  br i1 %4, label %11, label %5

5:                                                ; preds = %1
  %6 = load ptr, ptr %2, align 8
  %7 = load ptr, ptr @stdout, align 8
  %8 = call i32 @fputs(ptr noundef %6, ptr noundef %7)
  %9 = load ptr, ptr @stdout, align 8
  %10 = call i32 @fflush(ptr noundef %9)
  br label %11

11:                                               ; preds = %5, %1
  ret void
}

; Function Attrs: nounwind uwtable
define internal zeroext i1 @wait_for_postmaster_stop() #0 {
  %1 = alloca i1, align 1
  %2 = alloca i32, align 4
  %3 = alloca i32, align 4
  %4 = alloca i32, align 4
  call void @llvm.lifetime.start.p0(i64 4, ptr %2) #10
  store i32 0, ptr %2, align 4
  br label %5

5:                                                ; preds = %32, %0
  %6 = load i32, ptr %2, align 4
  %7 = load i32, ptr @wait_seconds, align 4
  %8 = mul i32 %7, 10
  %9 = icmp slt i32 %6, %8
  br i1 %9, label %10, label %35

10:                                               ; preds = %5
  call void @llvm.lifetime.start.p0(i64 4, ptr %3) #10
  %11 = call i32 @get_pgpid(i1 noundef zeroext false)
  store i32 %11, ptr %3, align 4
  %12 = icmp eq i32 %11, 0
  br i1 %12, label %13, label %14

13:                                               ; preds = %10
  store i1 true, ptr %1, align 1
  store i32 1, ptr %4, align 4
  br label %29

14:                                               ; preds = %10
  %15 = load i32, ptr %3, align 4
  %16 = call i32 @kill(i32 noundef %15, i32 noundef 0) #10
  %17 = icmp ne i32 %16, 0
  br i1 %17, label %18, label %23

18:                                               ; preds = %14
  %19 = call i32 @get_pgpid(i1 noundef zeroext false)
  %20 = icmp eq i32 %19, 0
  br i1 %20, label %21, label %22

21:                                               ; preds = %18
  store i1 true, ptr %1, align 1
  store i32 1, ptr %4, align 4
  br label %29

22:                                               ; preds = %18
  store i1 false, ptr %1, align 1
  store i32 1, ptr %4, align 4
  br label %29

23:                                               ; preds = %14
  %24 = load i32, ptr %2, align 4
  %25 = srem i32 %24, 10
  %26 = icmp eq i32 %25, 0
  br i1 %26, label %27, label %28

27:                                               ; preds = %23
  call void @print_msg(ptr noundef @.str.145)
  br label %28

28:                                               ; preds = %27, %23
  call void @pg_usleep(i64 noundef 100000)
  store i32 0, ptr %4, align 4
  br label %29

29:                                               ; preds = %28, %22, %21, %13
  call void @llvm.lifetime.end.p0(i64 4, ptr %3) #10
  %30 = load i32, ptr %4, align 4
  switch i32 %30, label %36 [
    i32 0, label %31
  ]

31:                                               ; preds = %29
  br label %32

32:                                               ; preds = %31
  %33 = load i32, ptr %2, align 4
  %34 = add i32 %33, 1
  store i32 %34, ptr %2, align 4
  br label %5, !llvm.loop !13

35:                                               ; preds = %5
  store i1 false, ptr %1, align 1
  store i32 1, ptr %4, align 4
  br label %36

36:                                               ; preds = %35, %29
  call void @llvm.lifetime.end.p0(i64 4, ptr %2) #10
  %37 = load i1, ptr %1, align 1
  ret i1 %37
}