; Function Attrs: nounwind uwtable
define internal fastcc zeroext i1 @wait_for_postmaster_stop() unnamed_addr #5 {
  %1 = load i32, ptr @wait_seconds, align 4
  %2 = mul i32 %1, 10
  %3 = icmp sgt i32 %2, 0
  br i1 %3, label %.lr.ph, label %.thread

.lr.ph:                                           ; preds = %0, %19
  %.0610 = phi i32 [ %20, %19 ], [ 0, %0 ]
  %4 = tail call fastcc i32 @get_pgpid(i1 noundef zeroext false)
  %5 = icmp eq i32 %4, 0
  br i1 %5, label %.thread, label %6

6:                                                ; preds = %.lr.ph
  %7 = tail call i32 @kill(i32 noundef %4, i32 noundef 0) #17
  %.not = icmp eq i32 %7, 0
  br i1 %.not, label %11, label %8

8:                                                ; preds = %6
  %9 = tail call fastcc i32 @get_pgpid(i1 noundef zeroext false)
  %10 = icmp eq i32 %9, 0
  br label %.thread

11:                                               ; preds = %6
  %12 = urem i32 %.0610, 10
  %13 = icmp eq i32 %12, 0
  br i1 %13, label %14, label %19

14:                                               ; preds = %11
  %.b1.i = load i1, ptr @silent_mode, align 1
  br i1 %.b1.i, label %19, label %15

15:                                               ; preds = %14
  %16 = load ptr, ptr @stdout, align 8
  %fputc = tail call i32 @fputc(i32 46, ptr %16)
  %17 = load ptr, ptr @stdout, align 8
  %18 = tail call i32 @fflush(ptr noundef %17)
  br label %19

19:                                               ; preds = %15, %14, %11
  tail call void @pg_usleep(i64 noundef 100000) #17
  %20 = add nuw nsw i32 %.0610, 1
  %21 = load i32, ptr @wait_seconds, align 4
  %22 = mul i32 %21, 10
  %23 = icmp slt i32 %20, %22
  br i1 %23, label %.lr.ph, label %.thread, !llvm.loop !14

.thread:                                          ; preds = %19, %.lr.ph, %0, %8
  %.2 = phi i1 [ %10, %8 ], [ false, %0 ], [ %5, %.lr.ph ], [ %5, %19 ]
  ret i1 %.2
}